target datalayout = "e-m:e-p270:32:32-p271:32:32-p272:64:64-i64:64-i128:128-f80:128-n8:16:32:64-S128"
target triple = "x86_64-pc-linux-gnu"

%struct.object_id = type { [32 x i8], i32 }
%union.anon = type { %struct.anon.0 }
%struct.anon.0 = type { ptr, i64, i32 }
%struct.repository = type { ptr, ptr, ptr, ptr, ptr, %struct.strmap, %struct.strmap, %struct.repo_path_cache, ptr, ptr, ptr, ptr, %struct.repo_settings, ptr, ptr, ptr, ptr, ptr, ptr, i32, i32, i32, ptr, ptr, i32, i32, i8 }
%struct.strmap = type { %struct.hashmap, ptr, i8 }
%struct.hashmap = type { ptr, ptr, ptr, i32, i32, i32, i32, i8 }
%struct.repo_path_cache = type { ptr, ptr, ptr, ptr, ptr, ptr, ptr }
%struct.repo_settings = type { i32, i32, i32, i32, i32, i32, i32, i32, i32, i32, i32, i32, ptr, i32, i32, i32, i32, i32, i32, i32, i64, i64, i64 }
%struct.git_hash_algo = type { ptr, i32, i64, i64, i64, ptr, ptr, ptr, ptr, ptr, ptr, ptr, ptr, ptr }
%struct.object_info = type { ptr, ptr, ptr, ptr, ptr, ptr, i32, %union.anon }

@the_repository = external global ptr, align 8
@.str.10 = private unnamed_addr constant [14 x i8] c"object-file.c\00", align 1
@.str.25 = private unnamed_addr constant [58 x i8] c"could not get a type name for 'enum object_type' value %d\00", align 1
@.str.36 = private unnamed_addr constant [26 x i8] c"cannot read object for %s\00", align 1
@.str.37 = private unnamed_addr constant [27 x i8] c"cannot map object %s to %s\00", align 1
@.str.60 = private unnamed_addr constant [1 x i8] zeroinitializer, align 1
@git_gettext_enabled = external global i32, align 4
@.str.76 = private unnamed_addr constant [7 x i8] c"%s %lu\00", align 1

; Function Attrs: nounwind uwtable
define internal i32 @format_object_header_literally(ptr noundef %0, i64 noundef %1, ptr noundef %2, i64 noundef %3) #0 {
  %5 = alloca ptr, align 8
  %6 = alloca i64, align 8
  %7 = alloca ptr, align 8
  %8 = alloca i64, align 8
  store ptr %0, ptr %5, align 8, !tbaa !12
  store i64 %1, ptr %6, align 8, !tbaa !10
  store ptr %2, ptr %7, align 8, !tbaa !12
  store i64 %3, ptr %8, align 8, !tbaa !10
  %9 = load ptr, ptr %5, align 8, !tbaa !12
  %10 = load i64, ptr %6, align 8, !tbaa !10
  %11 = load ptr, ptr %7, align 8, !tbaa !12
  %12 = load i64, ptr %8, align 8, !tbaa !10
  %13 = call i32 (ptr, i64, ptr, ...) @xsnprintf(ptr noundef %9, i64 noundef %10, ptr noundef @.str.76, ptr noundef %11, i64 noundef %12)
  %14 = add nsw i32 %13, 1
  ret i32 %14
}

; Function Attrs: nounwind uwtable
define dso_local i32 @format_object_header(ptr noundef %0, i64 noundef %1, i32 noundef %2, i64 noundef %3) #0 {
  %5 = alloca ptr, align 8
  %6 = alloca i64, align 8
  %7 = alloca i32, align 4
  %8 = alloca i64, align 8
  %9 = alloca ptr, align 8
  store ptr %0, ptr %5, align 8, !tbaa !12
  store i64 %1, ptr %6, align 8, !tbaa !10
  store i32 %2, ptr %7, align 4, !tbaa !43
  store i64 %3, ptr %8, align 8, !tbaa !10
  call void @llvm.lifetime.start.p0(i64 8, ptr %9) #14
  %10 = load i32, ptr %7, align 4, !tbaa !43
  %11 = call ptr @type_name(i32 noundef %10)
  store ptr %11, ptr %9, align 8, !tbaa !12
  %12 = load ptr, ptr %9, align 8, !tbaa !12
  %13 = icmp ne ptr %12, null
  br i1 %13, label %16, label %14

14:                                               ; preds = %4
  %15 = load i32, ptr %7, align 4, !tbaa !43
  call void (ptr, i32, ptr, ...) @BUG_fl(ptr noundef @.str.10, i32 noundef 1159, ptr noundef @.str.25, i32 noundef %15) #13
  unreachable

16:                                               ; preds = %4
  %17 = load ptr, ptr %5, align 8, !tbaa !12
  %18 = load i64, ptr %6, align 8, !tbaa !10
  %19 = load ptr, ptr %9, align 8, !tbaa !12
  %20 = load i64, ptr %8, align 8, !tbaa !10
  %21 = call i32 @format_object_header_literally(ptr noundef %17, i64 noundef %18, ptr noundef %19, i64 noundef %20)
  call void @llvm.lifetime.end.p0(i64 8, ptr %9) #14
  ret i32 %21
}

; Function Attrs: inlinehint nounwind uwtable
define internal i32 @const_error() #7 {
  ret i32 -1
}

; Function Attrs: inlinehint nounwind uwtable
define internal ptr @_(ptr noundef %0) #7 {
  %2 = alloca ptr, align 8
  %3 = alloca ptr, align 8
  store ptr %0, ptr %3, align 8, !tbaa !12
  %4 = load ptr, ptr %3, align 8, !tbaa !12
  %5 = load i8, ptr %4, align 1, !tbaa !58
  %6 = icmp ne i8 %5, 0
  br i1 %6, label %8, label %7

7:                                                ; preds = %1
  store ptr @.str.60, ptr %2, align 8
  br label %16

8:                                                ; preds = %1
  %9 = load i32, ptr @git_gettext_enabled, align 4, !tbaa !43
  %10 = icmp ne i32 %9, 0
  br i1 %10, label %13, label %11

11:                                               ; preds = %8
  %12 = load ptr, ptr %3, align 8, !tbaa !12
  store ptr %12, ptr %2, align 8
  br label %16

13:                                               ; preds = %8
  %14 = load ptr, ptr %3, align 8, !tbaa !12
  %15 = call ptr @dcgettext(ptr noundef null, ptr noundef %14, i32 noundef 5) #14
  store ptr %15, ptr %2, align 8
  br label %16

16:                                               ; preds = %13, %11, %7
  %17 = load ptr, ptr %2, align 8
  ret ptr %17
}

; Function Attrs: nounwind uwtable
define dso_local i32 @has_loose_object(ptr noundef %0) #0 {
  %2 = alloca ptr, align 8
  store ptr %0, ptr %2, align 8, !tbaa !14
  %3 = load ptr, ptr %2, align 8, !tbaa !14
  %4 = call i32 @check_and_freshen(ptr noundef %3, i32 noundef 0)
  ret i32 %4
}

; Function Attrs: nounwind uwtable
define dso_local i32 @force_object_loose(ptr noundef %0, i64 noundef %1) #0 {
  %3 = alloca i32, align 4
  %4 = alloca ptr, align 8
  %5 = alloca i64, align 8
  %6 = alloca ptr, align 8
  %7 = alloca ptr, align 8
  %8 = alloca ptr, align 8
  %9 = alloca i64, align 8
  %10 = alloca %struct.object_info, align 8
  %11 = alloca %struct.object_id, align 4
  %12 = alloca i32, align 4
  %13 = alloca [32 x i8], align 16
  %14 = alloca i32, align 4
  %15 = alloca i32, align 4
  %16 = alloca i32, align 4
  store ptr %0, ptr %4, align 8, !tbaa !14
  store i64 %1, ptr %5, align 8, !tbaa !10
  call void @llvm.lifetime.start.p0(i64 8, ptr %6) #14
  %17 = load ptr, ptr @the_repository, align 8, !tbaa !19
  store ptr %17, ptr %6, align 8, !tbaa !19
  call void @llvm.lifetime.start.p0(i64 8, ptr %7) #14
  %18 = load ptr, ptr %6, align 8, !tbaa !19
  %19 = getelementptr inbounds nuw %struct.repository, ptr %18, i32 0, i32 18
  %20 = load ptr, ptr %19, align 8, !tbaa !164
  store ptr %20, ptr %7, align 8, !tbaa !41
  call void @llvm.lifetime.start.p0(i64 8, ptr %8) #14
  call void @llvm.lifetime.start.p0(i64 8, ptr %9) #14
  call void @llvm.lifetime.start.p0(i64 80, ptr %10) #14
  call void @llvm.memset.p0.i64(ptr align 8 %10, i8 0, i64 80, i1 false)
  call void @llvm.lifetime.start.p0(i64 36, ptr %11) #14
  call void @llvm.lifetime.start.p0(i64 4, ptr %12) #14
  call void @llvm.lifetime.start.p0(i64 32, ptr %13) #14
  call void @llvm.lifetime.start.p0(i64 4, ptr %14) #14
  call void @llvm.lifetime.start.p0(i64 4, ptr %15) #14
  %21 = load ptr, ptr %4, align 8, !tbaa !14
  %22 = call i32 @has_loose_object(ptr noundef %21)
  %23 = icmp ne i32 %22, 0
  br i1 %23, label %24, label %25

24:                                               ; preds = %2
  store i32 0, ptr %3, align 4
  store i32 1, ptr %16, align 4
  br label %82

25:                                               ; preds = %2
  %26 = getelementptr inbounds nuw %struct.object_info, ptr %10, i32 0, i32 0
  store ptr %12, ptr %26, align 8, !tbaa !130
  %27 = getelementptr inbounds nuw %struct.object_info, ptr %10, i32 0, i32 1
  store ptr %9, ptr %27, align 8, !tbaa !131
  %28 = getelementptr inbounds nuw %struct.object_info, ptr %10, i32 0, i32 5
  store ptr %8, ptr %28, align 8, !tbaa !134
  %29 = load ptr, ptr @the_repository, align 8, !tbaa !19
  %30 = load ptr, ptr %4, align 8, !tbaa !14
  %31 = call i32 @oid_object_info_extended(ptr noundef %29, ptr noundef %30, ptr noundef %10, i32 noundef 0)
  %32 = icmp ne i32 %31, 0
  br i1 %32, label %33, label %39

33:                                               ; preds = %25
  %34 = call ptr @_(ptr noundef @.str.36)
  %35 = load ptr, ptr %4, align 8, !tbaa !14
  %36 = call ptr @oid_to_hex(ptr noundef %35)
  %37 = call i32 (ptr, ...) @error(ptr noundef %34, ptr noundef %36)
  %38 = call i32 @const_error()
  store i32 %38, ptr %3, align 4
  store i32 1, ptr %16, align 4
  br label %82

39:                                               ; preds = %25
  %40 = load ptr, ptr %7, align 8, !tbaa !41
  %41 = icmp ne ptr %40, null
  br i1 %41, label %42, label %58

42:                                               ; preds = %39
  %43 = load ptr, ptr %6, align 8, !tbaa !19
  %44 = load ptr, ptr %4, align 8, !tbaa !14
  %45 = load ptr, ptr %7, align 8, !tbaa !41
  %46 = call i32 @repo_oid_to_algop(ptr noundef %43, ptr noundef %44, ptr noundef %45, ptr noundef %11)
  %47 = icmp ne i32 %46, 0
  br i1 %47, label %48, label %57

48:                                               ; preds = %42
  %49 = call ptr @_(ptr noundef @.str.37)
  %50 = load ptr, ptr %4, align 8, !tbaa !14
  %51 = call ptr @oid_to_hex(ptr noundef %50)
  %52 = load ptr, ptr %7, align 8, !tbaa !41
  %53 = getelementptr inbounds nuw %struct.git_hash_algo, ptr %52, i32 0, i32 0
  %54 = load ptr, ptr %53, align 8, !tbaa !44
  %55 = call i32 (ptr, ...) @error(ptr noundef %49, ptr noundef %51, ptr noundef %54)
  %56 = call i32 @const_error()
  store i32 %56, ptr %3, align 4
  store i32 1, ptr %16, align 4
  br label %82

57:                                               ; preds = %42
  br label %58

58:                                               ; preds = %57, %39
  %59 = getelementptr inbounds [32 x i8], ptr %13, i64 0, i64 0
  %60 = load i32, ptr %12, align 4, !tbaa !43
  %61 = load i64, ptr %9, align 8, !tbaa !10
  %62 = call i32 @format_object_header(ptr noundef %59, i64 noundef 32, i32 noundef %60, i64 noundef %61)
  store i32 %62, ptr %14, align 4, !tbaa !43
  %63 = load ptr, ptr %4, align 8, !tbaa !14
  %64 = getelementptr inbounds [32 x i8], ptr %13, i64 0, i64 0
  %65 = load i32, ptr %14, align 4, !tbaa !43
  %66 = load ptr, ptr %8, align 8, !tbaa !9
  %67 = load i64, ptr %9, align 8, !tbaa !10
  %68 = load i64, ptr %5, align 8, !tbaa !10
  %69 = call i32 @write_loose_object(ptr noundef %63, ptr noundef %64, i32 noundef %65, ptr noundef %66, i64 noundef %67, i64 noundef %68, i32 noundef 0)
  store i32 %69, ptr %15, align 4, !tbaa !43
  %70 = load i32, ptr %15, align 4, !tbaa !43
  %71 = icmp ne i32 %70, 0
  br i1 %71, label %79, label %72

72:                                               ; preds = %58
  %73 = load ptr, ptr %7, align 8, !tbaa !41
  %74 = icmp ne ptr %73, null
  br i1 %74, label %75, label %79

75:                                               ; preds = %72
  %76 = load ptr, ptr @the_repository, align 8, !tbaa !19
  %77 = load ptr, ptr %4, align 8, !tbaa !14
  %78 = call i32 @repo_add_loose_object_map(ptr noundef %76, ptr noundef %77, ptr noundef %11)
  store i32 %78, ptr %15, align 4, !tbaa !43
  br label %79

79:                                               ; preds = %75, %72, %58
  %80 = load ptr, ptr %8, align 8, !tbaa !9
  call void @free(ptr noundef %80) #14
  %81 = load i32, ptr %15, align 4, !tbaa !43
  store i32 %81, ptr %3, align 4
  store i32 1, ptr %16, align 4
  br label %82

82:                                               ; preds = %79, %48, %33, %24
  call void @llvm.lifetime.end.p0(i64 4, ptr %15) #14
  call void @llvm.lifetime.end.p0(i64 4, ptr %14) #14
  call void @llvm.lifetime.end.p0(i64 32, ptr %13) #14
  call void @llvm.lifetime.end.p0(i64 4, ptr %12) #14
  call void @llvm.lifetime.end.p0(i64 36, ptr %11) #14
  call void @llvm.lifetime.end.p0(i64 80, ptr %10) #14
  call void @llvm.lifetime.end.p0(i64 8, ptr %9) #14
  call void @llvm.lifetime.end.p0(i64 8, ptr %8) #14
  call void @llvm.lifetime.end.p0(i64 8, ptr %7) #14
  call void @llvm.lifetime.end.p0(i64 8, ptr %6) #14
  %83 = load i32, ptr %3, align 4
  ret i32 %83
}