; Function Attrs: nounwind uwtable
define dso_local i32 @force_object_loose(ptr noundef %0, i64 noundef %1) local_unnamed_addr #1 {
  %3 = alloca ptr, align 8
  %4 = alloca i64, align 8
  %5 = alloca %struct.object_info, align 8
  %6 = alloca %struct.object_id, align 4
  %7 = alloca i32, align 4
  %8 = alloca [32 x i8], align 16
  %9 = load ptr, ptr @the_repository, align 8, !tbaa !9
  %10 = getelementptr inbounds nuw i8, ptr %9, i64 408
  %11 = load ptr, ptr %10, align 8, !tbaa !152
  call void @llvm.lifetime.start.p0(i64 8, ptr nonnull %3) #27
  call void @llvm.lifetime.start.p0(i64 8, ptr nonnull %4) #27
  call void @llvm.lifetime.start.p0(i64 80, ptr nonnull %5) #27
  %12 = getelementptr inbounds nuw i8, ptr %5, i64 16
  call void @llvm.memset.p0.i64(ptr noundef nonnull align 8 dereferenceable(80) %12, i8 0, i64 64, i1 false)
  call void @llvm.lifetime.start.p0(i64 36, ptr nonnull %6) #27
  call void @llvm.lifetime.start.p0(i64 4, ptr nonnull %7) #27
  call void @llvm.lifetime.start.p0(i64 32, ptr nonnull %8) #27
  %13 = tail call fastcc range(i32 0, 2) i32 @check_and_freshen(ptr noundef readonly %0, i32 noundef 0)
  %.not = icmp eq i32 %13, 0
  br i1 %.not, label %14, label %52

14:                                               ; preds = %2
  store ptr %7, ptr %5, align 8, !tbaa !116
  %15 = getelementptr inbounds nuw i8, ptr %5, i64 8
  store ptr %4, ptr %15, align 8, !tbaa !117
  %16 = getelementptr inbounds nuw i8, ptr %5, i64 40
  store ptr %3, ptr %16, align 8, !tbaa !120
  %17 = load ptr, ptr @the_repository, align 8, !tbaa !9
  %18 = call i32 @oid_object_info_extended(ptr noundef %17, ptr noundef %0, ptr noundef nonnull %5, i32 noundef 0)
  %.not20 = icmp eq i32 %18, 0
  br i1 %.not20, label %25, label %19

19:                                               ; preds = %14
  %20 = load i32, ptr @git_gettext_enabled, align 4, !tbaa !44
  %.not4.i = icmp eq i32 %20, 0
  br i1 %.not4.i, label %_.exit, label %21

21:                                               ; preds = %19
  %22 = call ptr @dcgettext(ptr noundef null, ptr noundef nonnull @.str.36, i32 noundef 5) #27
  br label %_.exit

_.exit:                                           ; preds = %19, %21
  %.0.i = phi ptr [ %22, %21 ], [ @.str.36, %19 ]
  %23 = call ptr @oid_to_hex(ptr noundef %0) #27
  %24 = call i32 (ptr, ...) @error(ptr noundef %.0.i, ptr noundef %23) #27
  br label %52

25:                                               ; preds = %14
  %26 = icmp ne ptr %11, null
  br i1 %26, label %27, label %36

27:                                               ; preds = %25
  %28 = call i32 @repo_oid_to_algop(ptr noundef nonnull %9, ptr noundef %0, ptr noundef nonnull %11, ptr noundef nonnull %6) #27
  %.not21 = icmp eq i32 %28, 0
  br i1 %.not21, label %36, label %29

29:                                               ; preds = %27
  %30 = load i32, ptr @git_gettext_enabled, align 4, !tbaa !44
  %.not4.i22 = icmp eq i32 %30, 0
  br i1 %.not4.i22, label %_.exit24, label %31

31:                                               ; preds = %29
  %32 = call ptr @dcgettext(ptr noundef null, ptr noundef nonnull @.str.37, i32 noundef 5) #27
  br label %_.exit24

_.exit24:                                         ; preds = %29, %31
  %.0.i23 = phi ptr [ %32, %31 ], [ @.str.37, %29 ]
  %33 = call ptr @oid_to_hex(ptr noundef %0) #27
  %34 = load ptr, ptr %11, align 8, !tbaa !36
  %35 = call i32 (ptr, ...) @error(ptr noundef %.0.i23, ptr noundef %33, ptr noundef %34) #27
  br label %52

36:                                               ; preds = %27, %25
  %37 = load i32, ptr %7, align 4, !tbaa !44
  %38 = load i64, ptr %4, align 8, !tbaa !94
  %39 = call ptr @type_name(i32 noundef %37) #27
  %.not.i = icmp eq ptr %39, null
  br i1 %.not.i, label %40, label %format_object_header.exit

40:                                               ; preds = %36
  call void (ptr, i32, ptr, ...) @BUG_fl(ptr noundef nonnull @.str.10, i32 noundef 1159, ptr noundef nonnull @.str.25, i32 noundef %37) #26
  unreachable

format_object_header.exit:                        ; preds = %36
  %41 = call i32 (ptr, i64, ptr, ...) @xsnprintf(ptr noundef nonnull %8, i64 noundef 32, ptr noundef nonnull @.str.76, ptr noundef nonnull %39, i64 noundef %38) #27
  %42 = add nsw i32 %41, 1
  %43 = load ptr, ptr %3, align 8, !tbaa !122
  %44 = load i64, ptr %4, align 8, !tbaa !94
  %45 = call fastcc i32 @write_loose_object(ptr noundef %0, ptr noundef nonnull %8, i32 noundef %42, ptr noundef %43, i64 noundef %44, i64 noundef %1, i32 noundef 0)
  %46 = icmp eq i32 %45, 0
  %or.cond = and i1 %26, %46
  br i1 %or.cond, label %47, label %50

47:                                               ; preds = %format_object_header.exit
  %48 = load ptr, ptr @the_repository, align 8, !tbaa !9
  %49 = call i32 @repo_add_loose_object_map(ptr noundef %48, ptr noundef %0, ptr noundef nonnull %6) #27
  br label %50

50:                                               ; preds = %47, %format_object_header.exit
  %.0 = phi i32 [ %49, %47 ], [ %45, %format_object_header.exit ]
  %51 = load ptr, ptr %3, align 8, !tbaa !122
  call void @free(ptr noundef %51) #27
  br label %52

52:                                               ; preds = %2, %50, %_.exit24, %_.exit
  %.018 = phi i32 [ -1, %_.exit ], [ -1, %_.exit24 ], [ %.0, %50 ], [ 0, %2 ]
  call void @llvm.lifetime.end.p0(i64 32, ptr nonnull %8) #27
  call void @llvm.lifetime.end.p0(i64 4, ptr nonnull %7) #27
  call void @llvm.lifetime.end.p0(i64 36, ptr nonnull %6) #27
  call void @llvm.lifetime.end.p0(i64 80, ptr nonnull %5) #27
  call void @llvm.lifetime.end.p0(i64 8, ptr nonnull %4) #27
  call void @llvm.lifetime.end.p0(i64 8, ptr nonnull %3) #27
  ret i32 %.018
}